target datalayout = "e-m:e-p270:32:32-p271:32:32-p272:64:64-i64:64-i128:128-f80:128-n8:16:32:64-S128"
target triple = "x86_64-pc-linux-gnu"

%struct.Connection = type { ptr, ptr, i32 }

; Function Attrs: nounwind uwtable
define internal i64 @send_callback(ptr noundef %0, ptr noundef %1, i64 noundef %2, i32 noundef %3, ptr noundef %4) #0 {
  %6 = alloca ptr, align 8
  %7 = alloca ptr, align 8
  %8 = alloca i64, align 8
  %9 = alloca i32, align 4
  %10 = alloca ptr, align 8
  %11 = alloca ptr, align 8
  %12 = alloca i32, align 4
  %13 = alloca i32, align 4
  store ptr %0, ptr %6, align 8, !tbaa !84
  store ptr %1, ptr %7, align 8, !tbaa !13
  store i64 %2, ptr %8, align 8, !tbaa !19
  store i32 %3, ptr %9, align 4, !tbaa !4
  store ptr %4, ptr %10, align 8, !tbaa !85
  call void @llvm.lifetime.start.p0(i64 8, ptr %11) #11
  call void @llvm.lifetime.start.p0(i64 4, ptr %12) #11
  %14 = load ptr, ptr %10, align 8, !tbaa !85
  store ptr %14, ptr %11, align 8, !tbaa !73
  %15 = load ptr, ptr %11, align 8, !tbaa !73
  %16 = getelementptr inbounds nuw %struct.Connection, ptr %15, i32 0, i32 2
  store i32 0, ptr %16, align 8, !tbaa !45
  call void @ERR_clear_error()
  %17 = load ptr, ptr %11, align 8, !tbaa !73
  %18 = getelementptr inbounds nuw %struct.Connection, ptr %17, i32 0, i32 0
  %19 = load ptr, ptr %18, align 8, !tbaa !42
  %20 = load ptr, ptr %7, align 8, !tbaa !13
  %21 = load i64, ptr %8, align 8, !tbaa !19
  %22 = trunc i64 %21 to i32
  %23 = call i32 @SSL_write(ptr noundef %19, ptr noundef %20, i32 noundef %22)
  store i32 %23, ptr %12, align 4, !tbaa !4
  %24 = load i32, ptr %12, align 4, !tbaa !4
  %25 = icmp sle i32 %24, 0
  br i1 %25, label %26, label %45

26:                                               ; preds = %5
  call void @llvm.lifetime.start.p0(i64 4, ptr %13) #11
  %27 = load ptr, ptr %11, align 8, !tbaa !73
  %28 = getelementptr inbounds nuw %struct.Connection, ptr %27, i32 0, i32 0
  %29 = load ptr, ptr %28, align 8, !tbaa !42
  %30 = load i32, ptr %12, align 4, !tbaa !4
  %31 = call i32 @SSL_get_error(ptr noundef %29, i32 noundef %30)
  store i32 %31, ptr %13, align 4, !tbaa !4
  %32 = load i32, ptr %13, align 4, !tbaa !4
  %33 = icmp eq i32 %32, 3
  br i1 %33, label %37, label %34

34:                                               ; preds = %26
  %35 = load i32, ptr %13, align 4, !tbaa !4
  %36 = icmp eq i32 %35, 2
  br i1 %36, label %37, label %43

37:                                               ; preds = %34, %26
  %38 = load i32, ptr %13, align 4, !tbaa !4
  %39 = icmp eq i32 %38, 2
  %40 = select i1 %39, i32 1, i32 2
  %41 = load ptr, ptr %11, align 8, !tbaa !73
  %42 = getelementptr inbounds nuw %struct.Connection, ptr %41, i32 0, i32 2
  store i32 %40, ptr %42, align 8, !tbaa !45
  store i32 -504, ptr %12, align 4, !tbaa !4
  br label %44

43:                                               ; preds = %34
  store i32 -902, ptr %12, align 4, !tbaa !4
  br label %44

44:                                               ; preds = %43, %37
  call void @llvm.lifetime.end.p0(i64 4, ptr %13) #11
  br label %45

45:                                               ; preds = %44, %5
  %46 = load i32, ptr %12, align 4, !tbaa !4
  %47 = sext i32 %46 to i64
  call void @llvm.lifetime.end.p0(i64 4, ptr %12) #11
  call void @llvm.lifetime.end.p0(i64 8, ptr %11) #11
  ret i64 %47
}