; Function Attrs: nounwind uwtable
define internal range(i64 -902, 2147483648) i64 @send_callback(ptr readnone captures(none) %0, ptr noundef %1, i64 noundef %2, i32 %3, ptr noundef captures(none) initializes((16, 20)) %4) #0 {
  %6 = getelementptr inbounds nuw i8, ptr %4, i64 16
  store i32 0, ptr %6, align 8, !tbaa !39
  tail call void @ERR_clear_error() #16
  %7 = load ptr, ptr %4, align 8, !tbaa !35
  %8 = trunc i64 %2 to i32
  %9 = tail call i32 @SSL_write(ptr noundef %7, ptr noundef %1, i32 noundef %8) #16
  %10 = icmp slt i32 %9, 1
  br i1 %10, label %11, label %18

11:                                               ; preds = %5
  %12 = load ptr, ptr %4, align 8, !tbaa !35
  %13 = tail call i32 @SSL_get_error(ptr noundef %12, i32 noundef %9) #16
  %14 = and i32 %13, -2
  %or.cond = icmp eq i32 %14, 2
  br i1 %or.cond, label %15, label %18

15:                                               ; preds = %11
  %16 = icmp eq i32 %13, 2
  %17 = select i1 %16, i32 1, i32 2
  store i32 %17, ptr %6, align 8, !tbaa !39
  br label %18

18:                                               ; preds = %15, %11, %5
  %.0 = phi i32 [ %9, %5 ], [ -504, %15 ], [ -902, %11 ]
  %19 = sext i32 %.0 to i64
  ret i64 %19
}